; Function Attrs: nounwind uwtable
define internal noundef zeroext i1 @SDL_HIDAPI_HapticDriverLg4ff_StopEffects(ptr noundef readonly captures(none) %0) #0 {
  %2 = getelementptr inbounds nuw i8, ptr %0, i64 24
  %3 = load ptr, ptr %2, align 8
  %4 = getelementptr inbounds nuw i8, ptr %3, i64 2944
  %5 = load ptr, ptr %4, align 8
  tail call void @SDL_LockMutex_REAL(ptr noundef %5) #8
  %invariant.gep = getelementptr inbounds nuw i8, ptr %3, i64 104
  br label %6

6:                                                ; preds = %1, %6
  %indvars.iv = phi i64 [ 0, %1 ], [ %indvars.iv.next, %6 ]
  %7 = mul nuw nsw i64 %indvars.iv, 152
  %gep = getelementptr inbounds nuw i8, ptr %invariant.gep, i64 %7
  store i32 0, ptr %gep, align 8
  %indvars.iv.next = add nuw nsw i64 %indvars.iv, 1
  %exitcond.not = icmp eq i64 %indvars.iv.next, 16
  br i1 %exitcond.not, label %8, label %6, !llvm.loop !6

8:                                                ; preds = %6
  %9 = load ptr, ptr %4, align 8
  tail call void @SDL_UnlockMutex_REAL(ptr noundef %9) #8
  ret i1 true
}